(iobstacleData
obstacle
p0
(dp1
S'sr'
p2
cnumpy.core.multiarray
_reconstruct
p3
(cnumpy
ndarray
p4
(I0
tp5
S'b'
p6
tp7
Rp8
(I1
(I0
tp9
cnumpy
dtype
p10
(S'f8'
p11
I0
I1
tp12
Rp13
(I3
S'<'
p14
NNNI-1
I-1
I0
tp15
bI00
S''
p16
tp17
bsS'E'
p18
g3
(g4
(I0
tp19
g6
tp20
Rp21
(I1
(I0
tp22
g13
I00
g16
tp23
bsS'E_array'
p24
(lp25
sS'Chi'
p26
g3
(g4
(I0
tp27
g6
tp28
Rp29
(I1
(I0
tp30
g13
I00
g16
tp31
bsS'sw'
p32
g3
(g4
(I0
tp33
g6
tp34
Rp35
(I1
(I0
tp36
g13
I00
g16
tp37
bsS'l'
p38
g3
(g4
(I0
tp39
g6
tp40
Rp41
(I1
(I0
tp42
g13
I00
g16
tp43
bsS'N'
p44
g3
(g4
(I0
tp45
g6
tp46
Rp47
(I1
(I0
tp48
g13
I00
g16
tp49
bsS'N_array'
p50
(lp51
sS'w'
p52
g3
(g4
(I0
tp53
g6
tp54
Rp55
(I1
(I0
tp56
g13
I00
g16
tp57
bsS'sl'
p58
g3
(g4
(I0
tp59
g6
tp60
Rp61
(I1
(I0
tp62
g13
I00
g16
tp63
bsS'Present'
p64
I00
sb.